target datalayout = "e-m:e-p270:32:32-p271:32:32-p272:64:64-i64:64-i128:128-f80:128-n8:16:32:64-S128"
target triple = "x86_64-pc-linux-gnu"

%"class.std::__cxx11::basic_string" = type { %"struct.std::__cxx11::basic_string<char>::_Alloc_hider", i64, %union.anon }
%"struct.std::__cxx11::basic_string<char>::_Alloc_hider" = type { ptr }
%union.anon = type { i64, [8 x i8] }
%"class.std::allocator" = type { i8 }
%"class.cv::videostab::FromFileMotionReader" = type { %"class.cv::videostab::ImageMotionEstimatorBase.base", %"class.std::basic_ifstream" }
%"class.cv::videostab::ImageMotionEstimatorBase.base" = type <{ ptr, i32 }>
%"class.std::basic_ifstream" = type { %"class.std::basic_istream.base", %"class.std::basic_filebuf", %"class.std::basic_ios" }
%"class.std::basic_istream.base" = type { ptr, i64 }
%"class.std::basic_filebuf" = type { %"class.std::basic_streambuf", %union.pthread_mutex_t, %"class.std::__basic_file", i32, %struct.__mbstate_t, %struct.__mbstate_t, %struct.__mbstate_t, ptr, i64, i8, i8, i8, i8, ptr, ptr, i8, ptr, ptr, i64, ptr, ptr }
%"class.std::basic_streambuf" = type { ptr, ptr, ptr, ptr, ptr, ptr, ptr, %"class.std::locale" }
%"class.std::locale" = type { ptr }
%union.pthread_mutex_t = type { %struct.__pthread_mutex_s }
%struct.__pthread_mutex_s = type { i32, i32, i32, i32, i32, i16, i16, %struct.__pthread_internal_list }
%struct.__pthread_internal_list = type { ptr, ptr }
%"class.std::__basic_file" = type <{ ptr, i8, [7 x i8] }>
%struct.__mbstate_t = type { i32, %union.anon.18 }
%union.anon.18 = type { i32 }
%"class.std::basic_ios" = type { %"class.std::ios_base", ptr, i8, i8, ptr, ptr, ptr, ptr }
%"class.std::ios_base" = type { ptr, i64, i64, i32, i32, i32, ptr, %"struct.std::ios_base::_Words", [8 x %"struct.std::ios_base::_Words"], i32, ptr, %"class.std::locale" }
%"struct.std::ios_base::_Words" = type { ptr, i64 }

@.str.1 = private unnamed_addr constant [147 x i8] c"generated/home/dtcxzyw/WorkSpace/Projects/compilers/llvm-opt-benchmark/bench/opencv/contrib/opencv_contrib/modules/videostab/src/global_motion.cpp\00", align 1
@.str.7 = private unnamed_addr constant [16 x i8] c"file_.is_open()\00", align 1
@__func__._ZN2cv9videostab20FromFileMotionReaderC2ERKNSt7__cxx1112basic_stringIcSt11char_traitsIcESaIcEEE = private unnamed_addr constant [21 x i8] c"FromFileMotionReader\00", align 1

; Function Attrs: mustprogress nounwind uwtable
define linkonce_odr hidden void @_ZN2cv9videostab24ImageMotionEstimatorBaseD2Ev(ptr noundef nonnull align 8 dereferenceable(12) %0) unnamed_addr #7 comdat align 2 {
  %2 = alloca ptr, align 8
  store ptr %0, ptr %2, align 8
  ret void
}

; Function Attrs: mustprogress uwtable
define linkonce_odr hidden void @_ZN2cv9videostab24ImageMotionEstimatorBaseC2ENS0_11MotionModelE(ptr noundef nonnull align 8 dereferenceable(12) %0, i32 noundef %1) unnamed_addr #4 comdat align 2 {
  %3 = alloca ptr, align 8
  %4 = alloca i32, align 4
  store ptr %0, ptr %3, align 8
  store i32 %1, ptr %4, align 4
  %5 = load ptr, ptr %3, align 8
  store ptr getelementptr inbounds inrange(-16, 48) ({ [8 x ptr] }, ptr @_ZTVN2cv9videostab24ImageMotionEstimatorBaseE, i32 0, i32 0, i32 2), ptr %5, align 8
  %6 = load i32, ptr %4, align 4
  %7 = load ptr, ptr %5, align 8
  %8 = getelementptr inbounds ptr, ptr %7, i64 2
  %9 = load ptr, ptr %8, align 8
  call void %9(ptr noundef nonnull align 8 dereferenceable(12) %5, i32 noundef %6)
  ret void
}

; Function Attrs: mustprogress uwtable
define void @_ZN2cv9videostab20FromFileMotionReaderC2ERKNSt7__cxx1112basic_stringIcSt11char_traitsIcESaIcEEE(ptr noundef nonnull align 8 dereferenceable(536) %0, ptr noundef nonnull align 8 dereferenceable(32) %1) unnamed_addr #4 align 2 personality ptr @__gxx_personality_v0 {
  %3 = alloca ptr, align 8
  %4 = alloca ptr, align 8
  %5 = alloca ptr, align 8
  %6 = alloca i32, align 4
  %7 = alloca %"class.std::__cxx11::basic_string", align 8
  %8 = alloca %"class.std::allocator", align 1
  store ptr %0, ptr %3, align 8
  store ptr %1, ptr %4, align 8
  %9 = load ptr, ptr %3, align 8
  call void @_ZN2cv9videostab24ImageMotionEstimatorBaseC2ENS0_11MotionModelE(ptr noundef nonnull align 8 dereferenceable(12) %9, i32 noundef 7)
  store ptr getelementptr inbounds inrange(-16, 48) ({ [8 x ptr] }, ptr @_ZTVN2cv9videostab20FromFileMotionReaderE, i32 0, i32 0, i32 2), ptr %9, align 8
  %10 = getelementptr inbounds %"class.cv::videostab::FromFileMotionReader", ptr %9, i32 0, i32 1
  invoke void @_ZNSt14basic_ifstreamIcSt11char_traitsIcEEC1Ev(ptr noundef nonnull align 8 dereferenceable(256) %10)
          to label %11 unwind label %21

11:                                               ; preds = %2
  %12 = getelementptr inbounds %"class.cv::videostab::FromFileMotionReader", ptr %9, i32 0, i32 1
  %13 = load ptr, ptr %4, align 8
  %14 = call noundef ptr @_ZNKSt7__cxx1112basic_stringIcSt11char_traitsIcESaIcEE5c_strEv(ptr noundef nonnull align 8 dereferenceable(32) %13) #3
  invoke void @_ZNSt14basic_ifstreamIcSt11char_traitsIcEE4openEPKcSt13_Ios_Openmode(ptr noundef nonnull align 8 dereferenceable(256) %12, ptr noundef %14, i32 noundef 8)
          to label %15 unwind label %25

15:                                               ; preds = %11
  br label %16

16:                                               ; preds = %15
  %17 = getelementptr inbounds %"class.cv::videostab::FromFileMotionReader", ptr %9, i32 0, i32 1
  %18 = invoke noundef zeroext i1 @_ZNSt14basic_ifstreamIcSt11char_traitsIcEE7is_openEv(ptr noundef nonnull align 8 dereferenceable(256) %17)
          to label %19 unwind label %25

19:                                               ; preds = %16
  br i1 %18, label %20, label %29

20:                                               ; preds = %19
  br label %41

21:                                               ; preds = %2
  %22 = landingpad { ptr, i32 }
          cleanup
  %23 = extractvalue { ptr, i32 } %22, 0
  store ptr %23, ptr %5, align 8
  %24 = extractvalue { ptr, i32 } %22, 1
  store i32 %24, ptr %6, align 4
  br label %45

25:                                               ; preds = %16, %11
  %26 = landingpad { ptr, i32 }
          cleanup
  %27 = extractvalue { ptr, i32 } %26, 0
  store ptr %27, ptr %5, align 8
  %28 = extractvalue { ptr, i32 } %26, 1
  store i32 %28, ptr %6, align 4
  br label %44

29:                                               ; preds = %19
  call void @_ZNSaIcEC1Ev(ptr noundef nonnull align 1 dereferenceable(1) %8) #3
  invoke void @_ZNSt7__cxx1112basic_stringIcSt11char_traitsIcESaIcEEC1EPKcRKS3_(ptr noundef nonnull align 8 dereferenceable(32) %7, ptr noundef @.str.7, ptr noundef nonnull align 1 dereferenceable(1) %8)
          to label %30 unwind label %32

30:                                               ; preds = %29
  invoke void @_ZN2cv5errorEiRKNSt7__cxx1112basic_stringIcSt11char_traitsIcESaIcEEEPKcS9_i(i32 noundef -215, ptr noundef nonnull align 8 dereferenceable(32) %7, ptr noundef @__func__._ZN2cv9videostab20FromFileMotionReaderC2ERKNSt7__cxx1112basic_stringIcSt11char_traitsIcESaIcEEE, ptr noundef @.str.1, i32 noundef 672) #16
          to label %31 unwind label %36

31:                                               ; preds = %30
  unreachable

32:                                               ; preds = %29
  %33 = landingpad { ptr, i32 }
          cleanup
  %34 = extractvalue { ptr, i32 } %33, 0
  store ptr %34, ptr %5, align 8
  %35 = extractvalue { ptr, i32 } %33, 1
  store i32 %35, ptr %6, align 4
  br label %40

36:                                               ; preds = %30
  %37 = landingpad { ptr, i32 }
          cleanup
  %38 = extractvalue { ptr, i32 } %37, 0
  store ptr %38, ptr %5, align 8
  %39 = extractvalue { ptr, i32 } %37, 1
  store i32 %39, ptr %6, align 4
  call void @_ZNSt7__cxx1112basic_stringIcSt11char_traitsIcESaIcEED1Ev(ptr noundef nonnull align 8 dereferenceable(32) %7) #3
  br label %40

40:                                               ; preds = %36, %32
  call void @_ZNSaIcED1Ev(ptr noundef nonnull align 1 dereferenceable(1) %8) #3
  br label %44

41:                                               ; preds = %20
  br label %42

42:                                               ; preds = %41
  br label %43

43:                                               ; preds = %42
  ret void

44:                                               ; preds = %40, %25
  call void @_ZNSt14basic_ifstreamIcSt11char_traitsIcEED1Ev(ptr noundef nonnull align 8 dereferenceable(256) %10) #3
  br label %45

45:                                               ; preds = %44, %21
  call void @_ZN2cv9videostab24ImageMotionEstimatorBaseD2Ev(ptr noundef nonnull align 8 dereferenceable(12) %9) #3
  br label %46

46:                                               ; preds = %45
  %47 = load ptr, ptr %5, align 8
  %48 = load i32, ptr %6, align 4
  %49 = insertvalue { ptr, i32 } poison, ptr %47, 0
  %50 = insertvalue { ptr, i32 } %49, i32 %48, 1
  resume { ptr, i32 } %50
}