; Function Attrs: mustprogress uwtable
define void @_ZN2cv9videostab20FromFileMotionReaderC2ERKNSt7__cxx1112basic_stringIcSt11char_traitsIcESaIcEEE(ptr noundef nonnull align 8 dereferenceable(536) %0, ptr noundef nonnull align 8 dereferenceable(32) %1) unnamed_addr #3 align 2 personality ptr @__gxx_personality_v0 {
  %3 = alloca %"class.std::__cxx11::basic_string", align 8
  %4 = alloca %"class.std::allocator", align 1
  %5 = getelementptr inbounds i8, ptr %0, i64 8
  store i32 7, ptr %5, align 8
  store ptr getelementptr inbounds inrange(-16, 48) (i8, ptr @_ZTVN2cv9videostab20FromFileMotionReaderE, i64 16), ptr %0, align 8
  %6 = getelementptr inbounds i8, ptr %0, i64 16
  tail call void @_ZNSt14basic_ifstreamIcSt11char_traitsIcEEC1Ev(ptr noundef nonnull align 8 dereferenceable(256) %6)
  %7 = tail call noundef ptr @_ZNKSt7__cxx1112basic_stringIcSt11char_traitsIcESaIcEE5c_strEv(ptr noundef nonnull align 8 dereferenceable(32) %1) #21
  invoke void @_ZNSt14basic_ifstreamIcSt11char_traitsIcEE4openEPKcSt13_Ios_Openmode(ptr noundef nonnull align 8 dereferenceable(256) %6, ptr noundef %7, i32 noundef 8)
          to label %8 unwind label %11

8:                                                ; preds = %2
  %9 = invoke noundef zeroext i1 @_ZNSt14basic_ifstreamIcSt11char_traitsIcEE7is_openEv(ptr noundef nonnull align 8 dereferenceable(256) %6)
          to label %10 unwind label %11

10:                                               ; preds = %8
  br i1 %9, label %21, label %13

11:                                               ; preds = %8, %2
  %12 = landingpad { ptr, i32 }
          cleanup
  br label %22

13:                                               ; preds = %10
  call void @_ZNSaIcEC1Ev(ptr noundef nonnull align 1 dereferenceable(1) %4) #21
  invoke void @_ZNSt7__cxx1112basic_stringIcSt11char_traitsIcESaIcEEC1EPKcRKS3_(ptr noundef nonnull align 8 dereferenceable(32) %3, ptr noundef nonnull @.str.7, ptr noundef nonnull align 1 dereferenceable(1) %4)
          to label %14 unwind label %16

14:                                               ; preds = %13
  invoke void @_ZN2cv5errorEiRKNSt7__cxx1112basic_stringIcSt11char_traitsIcESaIcEEEPKcS9_i(i32 noundef -215, ptr noundef nonnull align 8 dereferenceable(32) %3, ptr noundef nonnull @__func__._ZN2cv9videostab20FromFileMotionReaderC2ERKNSt7__cxx1112basic_stringIcSt11char_traitsIcESaIcEEE, ptr noundef nonnull @.str.1, i32 noundef 672) #22
          to label %15 unwind label %18

15:                                               ; preds = %14
  unreachable

16:                                               ; preds = %13
  %17 = landingpad { ptr, i32 }
          cleanup
  br label %20

18:                                               ; preds = %14
  %19 = landingpad { ptr, i32 }
          cleanup
  call void @_ZNSt7__cxx1112basic_stringIcSt11char_traitsIcESaIcEED1Ev(ptr noundef nonnull align 8 dereferenceable(32) %3) #21
  br label %20

20:                                               ; preds = %18, %16
  %.pn = phi { ptr, i32 } [ %19, %18 ], [ %17, %16 ]
  call void @_ZNSaIcED1Ev(ptr noundef nonnull align 1 dereferenceable(1) %4) #21
  br label %22

21:                                               ; preds = %10
  ret void

22:                                               ; preds = %20, %11
  %.pn.pn = phi { ptr, i32 } [ %.pn, %20 ], [ %12, %11 ]
  call void @_ZNSt14basic_ifstreamIcSt11char_traitsIcEED1Ev(ptr noundef nonnull align 8 dereferenceable(256) %6) #21
  resume { ptr, i32 } %.pn.pn
}